target datalayout = "e-m:e-p270:32:32-p271:32:32-p272:64:64-i64:64-i128:128-f80:128-n8:16:32:64-S128"
target triple = "x86_64-pc-linux-gnu"

%struct.Gia_Man_t_ = type { ptr, ptr, i32, i32, i32, i32, ptr, ptr, i32, i32, i32, ptr, ptr, %struct.Vec_Int_t_, %struct.Vec_Int_t_, i32, i32, i32, %struct.Vec_Int_t_, ptr, ptr, ptr, i32, i32, i32, i32, ptr, ptr, ptr, ptr, ptr, i32, i32, ptr, i32, ptr, ptr, ptr, ptr, ptr, ptr, ptr, ptr, ptr, ptr, ptr, ptr, ptr, ptr, ptr, ptr, ptr, ptr, %struct.Vec_Int_t_, %struct.Vec_Int_t_, ptr, ptr, ptr, ptr, ptr, ptr, ptr, ptr, ptr, ptr, ptr, ptr, ptr, ptr, ptr, ptr, ptr, ptr, ptr, ptr, ptr, i32, float, float, ptr, ptr, i32, ptr, ptr, ptr, ptr, ptr, ptr, ptr, ptr, ptr, ptr, ptr, ptr, ptr, ptr, ptr, i64, i64, ptr, ptr, i32, i32, i32, i32, i32, i32, i32, i32, i32, i32, i32, i32, ptr, ptr, ptr, ptr, ptr, ptr, ptr, ptr, i32, i32, i32, ptr, i32, i32, ptr, ptr, ptr, ptr, ptr, ptr, i32, i32, ptr, %struct.Vec_Int_t_, %struct.Vec_Int_t_, %struct.Vec_Int_t_, ptr, ptr, ptr, i32, i32, i32, i32, ptr, ptr, ptr, ptr, ptr }
%struct.Vec_Int_t_ = type { i32, i32, ptr }
%struct.Swp_Man_t_ = type { ptr, i32, i32, ptr, ptr, ptr, ptr, ptr, ptr, ptr, ptr, ptr, i32, i32, i32, i32, i32, i32, i64, i64, i64, i64, i64, i64, i64 }

; Function Attrs: inlinehint nounwind uwtable
define internal void @Vec_IntWriteEntry(ptr noundef %0, i32 noundef %1, i32 noundef %2) #2 {
  %4 = alloca ptr, align 8
  %5 = alloca i32, align 4
  %6 = alloca i32, align 4
  store ptr %0, ptr %4, align 8, !tbaa !29
  store i32 %1, ptr %5, align 4, !tbaa !47
  store i32 %2, ptr %6, align 4, !tbaa !47
  %7 = load i32, ptr %6, align 4, !tbaa !47
  %8 = load ptr, ptr %4, align 8, !tbaa !29
  %9 = getelementptr inbounds nuw %struct.Vec_Int_t_, ptr %8, i32 0, i32 2
  %10 = load ptr, ptr %9, align 8, !tbaa !69
  %11 = load i32, ptr %5, align 4, !tbaa !47
  %12 = sext i32 %11 to i64
  %13 = getelementptr inbounds i32, ptr %10, i64 %12
  store i32 %7, ptr %13, align 4, !tbaa !47
  ret void
}

; Function Attrs: inlinehint nounwind uwtable
define internal void @Vec_IntFree(ptr noundef %0) #2 {
  %2 = alloca ptr, align 8
  store ptr %0, ptr %2, align 8, !tbaa !29
  %3 = load ptr, ptr %2, align 8, !tbaa !29
  %4 = getelementptr inbounds nuw %struct.Vec_Int_t_, ptr %3, i32 0, i32 2
  %5 = load ptr, ptr %4, align 8, !tbaa !69
  %6 = icmp ne ptr %5, null
  br i1 %6, label %7, label %13

7:                                                ; preds = %1
  %8 = load ptr, ptr %2, align 8, !tbaa !29
  %9 = getelementptr inbounds nuw %struct.Vec_Int_t_, ptr %8, i32 0, i32 2
  %10 = load ptr, ptr %9, align 8, !tbaa !69
  call void @free(ptr noundef %10) #13
  %11 = load ptr, ptr %2, align 8, !tbaa !29
  %12 = getelementptr inbounds nuw %struct.Vec_Int_t_, ptr %11, i32 0, i32 2
  store ptr null, ptr %12, align 8, !tbaa !69
  br label %14

13:                                               ; preds = %1
  br label %14

14:                                               ; preds = %13, %7
  %15 = load ptr, ptr %2, align 8, !tbaa !29
  %16 = icmp ne ptr %15, null
  br i1 %16, label %17, label %19

17:                                               ; preds = %14
  %18 = load ptr, ptr %2, align 8, !tbaa !29
  call void @free(ptr noundef %18) #13
  store ptr null, ptr %2, align 8, !tbaa !29
  br label %20

19:                                               ; preds = %14
  br label %20

20:                                               ; preds = %19, %17
  ret void
}

; Function Attrs: nounwind uwtable
define i32 @Gia_SweeperProbeUpdate(ptr noundef %0, i32 noundef %1, i32 noundef %2) #0 {
  %4 = alloca ptr, align 8
  %5 = alloca i32, align 4
  %6 = alloca i32, align 4
  %7 = alloca ptr, align 8
  %8 = alloca i32, align 4
  store ptr %0, ptr %4, align 8, !tbaa !3
  store i32 %1, ptr %5, align 4, !tbaa !47
  store i32 %2, ptr %6, align 4, !tbaa !47
  call void @llvm.lifetime.start.p0(i64 8, ptr %7) #13
  %9 = load ptr, ptr %4, align 8, !tbaa !3
  %10 = getelementptr inbounds nuw %struct.Gia_Man_t_, ptr %9, i32 0, i32 99
  %11 = load ptr, ptr %10, align 8, !tbaa !33
  store ptr %11, ptr %7, align 8, !tbaa !31
  call void @llvm.lifetime.start.p0(i64 4, ptr %8) #13
  %12 = load ptr, ptr %7, align 8, !tbaa !31
  %13 = getelementptr inbounds nuw %struct.Swp_Man_t_, ptr %12, i32 0, i32 3
  %14 = load ptr, ptr %13, align 8, !tbaa !38
  %15 = load i32, ptr %5, align 4, !tbaa !47
  %16 = call i32 @Vec_IntEntry(ptr noundef %14, i32 noundef %15)
  store i32 %16, ptr %8, align 4, !tbaa !47
  %17 = load ptr, ptr %7, align 8, !tbaa !31
  %18 = getelementptr inbounds nuw %struct.Swp_Man_t_, ptr %17, i32 0, i32 3
  %19 = load ptr, ptr %18, align 8, !tbaa !38
  %20 = load i32, ptr %5, align 4, !tbaa !47
  %21 = load i32, ptr %6, align 4, !tbaa !47
  call void @Vec_IntWriteEntry(ptr noundef %19, i32 noundef %20, i32 noundef %21)
  %22 = load i32, ptr %8, align 4, !tbaa !47
  call void @llvm.lifetime.end.p0(i64 4, ptr %8) #13
  call void @llvm.lifetime.end.p0(i64 8, ptr %7) #13
  ret i32 %22
}

; Function Attrs: inlinehint nounwind uwtable
define internal i32 @Vec_IntEntry(ptr noundef %0, i32 noundef %1) #2 {
  %3 = alloca ptr, align 8
  %4 = alloca i32, align 4
  store ptr %0, ptr %3, align 8, !tbaa !29
  store i32 %1, ptr %4, align 4, !tbaa !47
  %5 = load ptr, ptr %3, align 8, !tbaa !29
  %6 = getelementptr inbounds nuw %struct.Vec_Int_t_, ptr %5, i32 0, i32 2
  %7 = load ptr, ptr %6, align 8, !tbaa !69
  %8 = load i32, ptr %4, align 4, !tbaa !47
  %9 = sext i32 %8 to i64
  %10 = getelementptr inbounds i32, ptr %7, i64 %9
  %11 = load i32, ptr %10, align 4, !tbaa !47
  ret i32 %11
}

; Function Attrs: inlinehint nounwind uwtable
define internal i32 @Vec_IntSize(ptr noundef %0) #2 {
  %2 = alloca ptr, align 8
  store ptr %0, ptr %2, align 8, !tbaa !29
  %3 = load ptr, ptr %2, align 8, !tbaa !29
  %4 = getelementptr inbounds nuw %struct.Vec_Int_t_, ptr %3, i32 0, i32 1
  %5 = load i32, ptr %4, align 4, !tbaa !30
  ret i32 %5
}

; Function Attrs: nounwind uwtable
define i32 @Gia_SweeperFraig(ptr noundef %0, ptr noundef %1, ptr noundef %2, i32 noundef %3, i32 noundef %4, i32 noundef %5, i32 noundef %6) #0 {
  %8 = alloca i32, align 4
  %9 = alloca ptr, align 8
  %10 = alloca ptr, align 8
  %11 = alloca ptr, align 8
  %12 = alloca i32, align 4
  %13 = alloca i32, align 4
  %14 = alloca i32, align 4
  %15 = alloca i32, align 4
  %16 = alloca ptr, align 8
  %17 = alloca ptr, align 8
  %18 = alloca i32, align 4
  %19 = alloca i32, align 4
  %20 = alloca i32, align 4
  store ptr %0, ptr %9, align 8, !tbaa !3
  store ptr %1, ptr %10, align 8, !tbaa !29
  store ptr %2, ptr %11, align 8, !tbaa !66
  store i32 %3, ptr %12, align 4, !tbaa !47
  store i32 %4, ptr %13, align 4, !tbaa !47
  store i32 %5, ptr %14, align 4, !tbaa !47
  store i32 %6, ptr %15, align 4, !tbaa !47
  call void @llvm.lifetime.start.p0(i64 8, ptr %16) #13
  call void @llvm.lifetime.start.p0(i64 8, ptr %17) #13
  call void @llvm.lifetime.start.p0(i64 4, ptr %18) #13
  call void @llvm.lifetime.start.p0(i64 4, ptr %19) #13
  %21 = load ptr, ptr %9, align 8, !tbaa !3
  %22 = load ptr, ptr %10, align 8, !tbaa !29
  %23 = load i32, ptr %12, align 4, !tbaa !47
  %24 = load i32, ptr %13, align 4, !tbaa !47
  %25 = load i32, ptr %14, align 4, !tbaa !47
  %26 = load i32, ptr %15, align 4, !tbaa !47
  %27 = call ptr @Gia_SweeperSweep(ptr noundef %21, ptr noundef %22, i32 noundef %23, i32 noundef %24, i32 noundef %25, i32 noundef %26)
  store ptr %27, ptr %16, align 8, !tbaa !3
  %28 = load ptr, ptr %16, align 8, !tbaa !3
  %29 = icmp eq ptr %28, null
  br i1 %29, label %30, label %31

30:                                               ; preds = %7
  store i32 0, ptr %8, align 4
  store i32 1, ptr %20, align 4
  br label %70

31:                                               ; preds = %7
  %32 = load ptr, ptr %11, align 8, !tbaa !66
  %33 = icmp ne ptr %32, null
  br i1 %33, label %34, label %42

34:                                               ; preds = %31
  %35 = call ptr (...) @Abc_FrameGetGlobalFrame()
  %36 = load ptr, ptr %16, align 8, !tbaa !3
  call void @Abc_FrameUpdateGia(ptr noundef %35, ptr noundef %36)
  %37 = call ptr (...) @Abc_FrameGetGlobalFrame()
  %38 = load ptr, ptr %11, align 8, !tbaa !66
  %39 = call i32 @Cmd_CommandExecute(ptr noundef %37, ptr noundef %38)
  %40 = call ptr (...) @Abc_FrameGetGlobalFrame()
  %41 = call ptr @Abc_FrameGetGia(ptr noundef %40)
  store ptr %41, ptr %16, align 8, !tbaa !3
  br label %42

42:                                               ; preds = %34, %31
  %43 = load ptr, ptr %9, align 8, !tbaa !3
  %44 = load ptr, ptr %16, align 8, !tbaa !3
  %45 = call ptr @Gia_SweeperGraft(ptr noundef %43, ptr noundef null, ptr noundef %44)
  store ptr %45, ptr %17, align 8, !tbaa !29
  %46 = load ptr, ptr %16, align 8, !tbaa !3
  call void @Gia_ManStop(ptr noundef %46)
  store i32 0, ptr %19, align 4, !tbaa !47
  br label %47

47:                                               ; preds = %65, %42
  %48 = load i32, ptr %19, align 4, !tbaa !47
  %49 = load ptr, ptr %10, align 8, !tbaa !29
  %50 = call i32 @Vec_IntSize(ptr noundef %49)
  %51 = icmp slt i32 %48, %50
  br i1 %51, label %52, label %56

52:                                               ; preds = %47
  %53 = load ptr, ptr %10, align 8, !tbaa !29
  %54 = load i32, ptr %19, align 4, !tbaa !47
  %55 = call i32 @Vec_IntEntry(ptr noundef %53, i32 noundef %54)
  store i32 %55, ptr %18, align 4, !tbaa !47
  br label %56

56:                                               ; preds = %52, %47
  %57 = phi i1 [ false, %47 ], [ true, %52 ]
  br i1 %57, label %58, label %68

58:                                               ; preds = %56
  %59 = load ptr, ptr %9, align 8, !tbaa !3
  %60 = load i32, ptr %18, align 4, !tbaa !47
  %61 = load ptr, ptr %17, align 8, !tbaa !29
  %62 = load i32, ptr %19, align 4, !tbaa !47
  %63 = call i32 @Vec_IntEntry(ptr noundef %61, i32 noundef %62)
  %64 = call i32 @Gia_SweeperProbeUpdate(ptr noundef %59, i32 noundef %60, i32 noundef %63)
  br label %65

65:                                               ; preds = %58
  %66 = load i32, ptr %19, align 4, !tbaa !47
  %67 = add nsw i32 %66, 1
  store i32 %67, ptr %19, align 4, !tbaa !47
  br label %47, !llvm.loop !132

68:                                               ; preds = %56
  %69 = load ptr, ptr %17, align 8, !tbaa !29
  call void @Vec_IntFree(ptr noundef %69)
  store i32 1, ptr %8, align 4
  store i32 1, ptr %20, align 4
  br label %70

70:                                               ; preds = %68, %30
  call void @llvm.lifetime.end.p0(i64 4, ptr %19) #13
  call void @llvm.lifetime.end.p0(i64 4, ptr %18) #13
  call void @llvm.lifetime.end.p0(i64 8, ptr %17) #13
  call void @llvm.lifetime.end.p0(i64 8, ptr %16) #13
  %71 = load i32, ptr %8, align 4
  ret i32 %71
}