; Function Attrs: nounwind uwtable
define range(i32 0, 2) i32 @Gia_SweeperFraig(ptr noundef %0, ptr noundef readonly captures(none) %1, ptr noundef %2, i32 noundef %3, i32 noundef %4, i32 noundef %5, i32 noundef %6) local_unnamed_addr #0 {
  %8 = tail call ptr @Gia_SweeperSweep(ptr noundef %0, ptr noundef %1, i32 noundef %3, i32 noundef %4, i32 noundef %5, i32 noundef %6)
  %9 = icmp eq ptr %8, null
  br i1 %9, label %38, label %10

10:                                               ; preds = %7
  %.not = icmp eq ptr %2, null
  br i1 %.not, label %17, label %11

11:                                               ; preds = %10
  %12 = tail call ptr (...) @Abc_FrameGetGlobalFrame() #23
  tail call void @Abc_FrameUpdateGia(ptr noundef %12, ptr noundef nonnull %8) #23
  %13 = tail call ptr (...) @Abc_FrameGetGlobalFrame() #23
  %14 = tail call i32 @Cmd_CommandExecute(ptr noundef %13, ptr noundef nonnull %2) #23
  %15 = tail call ptr (...) @Abc_FrameGetGlobalFrame() #23
  %16 = tail call ptr @Abc_FrameGetGia(ptr noundef %15) #23
  br label %17

17:                                               ; preds = %11, %10
  %.024 = phi ptr [ %16, %11 ], [ %8, %10 ]
  %18 = tail call ptr @Gia_SweeperGraft(ptr noundef %0, ptr noundef null, ptr noundef %.024)
  tail call void @Gia_ManStop(ptr noundef %.024) #23
  %19 = getelementptr i8, ptr %1, i64 4
  %.val29 = load i32, ptr %19, align 4, !tbaa !3
  %20 = icmp sgt i32 %.val29, 0
  br i1 %20, label %.lr.ph, label %.critedge

.lr.ph:                                           ; preds = %17
  %21 = getelementptr i8, ptr %1, i64 8
  %.val28 = load ptr, ptr %21, align 8, !tbaa !34
  %22 = getelementptr i8, ptr %18, i64 8
  %.val27 = load ptr, ptr %22, align 8, !tbaa !34
  %23 = getelementptr inbounds nuw i8, ptr %0, i64 768
  %24 = load ptr, ptr %23, align 8, !tbaa !10
  %25 = getelementptr inbounds nuw i8, ptr %24, i64 16
  %26 = load ptr, ptr %25, align 8, !tbaa !35
  %27 = getelementptr i8, ptr %26, i64 8
  %.val6.i = load ptr, ptr %27, align 8, !tbaa !34
  br label %28

28:                                               ; preds = %.lr.ph, %28
  %indvars.iv = phi i64 [ 0, %.lr.ph ], [ %indvars.iv.next, %28 ]
  %29 = getelementptr inbounds nuw i32, ptr %.val28, i64 %indvars.iv
  %30 = load i32, ptr %29, align 4, !tbaa !44
  %31 = getelementptr inbounds nuw i32, ptr %.val27, i64 %indvars.iv
  %32 = load i32, ptr %31, align 4, !tbaa !44
  %33 = sext i32 %30 to i64
  %34 = getelementptr inbounds i32, ptr %.val6.i, i64 %33
  store i32 %32, ptr %34, align 4, !tbaa !44
  %indvars.iv.next = add nuw nsw i64 %indvars.iv, 1
  %.val = load i32, ptr %19, align 4, !tbaa !3
  %35 = sext i32 %.val to i64
  %36 = icmp slt i64 %indvars.iv.next, %35
  br i1 %36, label %28, label %.critedge.thread, !llvm.loop !133

.critedge:                                        ; preds = %17
  %.phi.trans.insert = getelementptr inbounds nuw i8, ptr %18, i64 8
  %.pre = load ptr, ptr %.phi.trans.insert, align 8, !tbaa !34
  %.not.i = icmp eq ptr %.pre, null
  br i1 %.not.i, label %Vec_IntFree.exit, label %.critedge.thread

.critedge.thread:                                 ; preds = %28, %.critedge
  %37 = phi ptr [ %.pre, %.critedge ], [ %.val27, %28 ]
  tail call void @free(ptr noundef nonnull %37) #23
  br label %Vec_IntFree.exit

Vec_IntFree.exit:                                 ; preds = %.critedge, %.critedge.thread
  tail call void @free(ptr noundef nonnull %18) #23
  br label %38

38:                                               ; preds = %7, %Vec_IntFree.exit
  %.023 = phi i32 [ 1, %Vec_IntFree.exit ], [ 0, %7 ]
  ret i32 %.023
}